; Function Attrs: mustprogress uwtable
define noundef i32 @_ZN3zmq11ws_engine_t20produce_pong_messageEPNS_5msg_tE(ptr nocapture noundef nonnull writeonly align 8 dereferenceable(25696) %this, ptr noundef nonnull %msg_) unnamed_addr #0 align 2 {
entry:
  %call = tail call noundef i32 @_ZN3zmq5msg_t4initEv(ptr noundef nonnull align 8 dereferenceable(64) %msg_)
  %cmp.not = icmp eq i32 %call, 0
  br i1 %cmp.not, label %do.end, label %if.then

if.then:                                          ; preds = %entry
  %call2 = tail call ptr @__errno_location() #22
  %0 = load i32, ptr %call2, align 4
  %call3 = tail call ptr @strerror(i32 noundef %0) #19
  %1 = load ptr, ptr @stderr, align 8
  %call4 = tail call i32 (ptr, ptr, ...) @fprintf(ptr noundef %1, ptr noundef nonnull @.str.4, ptr noundef %call3, ptr noundef nonnull @.str.5, i32 noundef 964) #23
  %2 = load ptr, ptr @stderr, align 8
  %call5 = tail call i32 @fflush(ptr noundef %2)
  tail call void @_ZN3zmq9zmq_abortEPKc(ptr noundef %call3)
  br label %do.end

do.end:                                           ; preds = %entry, %if.then
  tail call void @_ZN3zmq5msg_t9set_flagsEh(ptr noundef nonnull align 8 dereferenceable(64) %msg_, i8 noundef zeroext 10)
  %_next_msg = getelementptr inbounds i8, ptr %this, i64 1416
  store i64 ptrtoint (ptr @_ZN3zmq20stream_engine_base_t15pull_and_encodeEPNS_5msg_tE to i64), ptr %_next_msg, align 8
  %_next_msg.repack4 = getelementptr inbounds i8, ptr %this, i64 1424
  store i64 0, ptr %_next_msg.repack4, align 8
  ret i32 %call
}